target datalayout = "e-m:e-p270:32:32-p271:32:32-p272:64:64-i64:64-i128:128-f80:128-n8:16:32:64-S128"
target triple = "x86_64-pc-linux-gnu"

%"class.std::__cxx11::basic_string" = type { %"struct.std::__cxx11::basic_string<char>::_Alloc_hider", i64, %union.anon }
%"struct.std::__cxx11::basic_string<char>::_Alloc_hider" = type { ptr }
%union.anon = type { i64, [8 x i8] }
%"class.std::allocator" = type { i8 }
%"class.cv::Mat" = type { i32, i32, i32, i32, ptr, ptr, ptr, ptr, ptr, ptr, %"struct.cv::MatSize", %"struct.cv::MatStep" }
%"struct.cv::MatSize" = type { ptr }
%"struct.cv::MatStep" = type { ptr, [2 x i64] }
%"class.cv::_InputArray" = type { i32, ptr, %"class.cv::Size_" }
%"class.cv::Size_" = type { i32, i32 }
%"class.cv::colormap::ColorMap" = type { ptr, %"class.cv::Mat" }
%"class.cv::colormap::UserColorMap" = type { %"class.cv::colormap::ColorMap" }

@.str.1 = private unnamed_addr constant [124 x i8] c"generated/home/dtcxzyw/WorkSpace/Projects/compilers/llvm-opt-benchmark/bench/opencv/opencv/modules/imgproc/src/colormap.cpp\00", align 1
@.str.2 = private unnamed_addr constant [42 x i8] c"cv::LUT only supports tables of size 256.\00", align 1
@__func__._ZN2cv13applyColorMapERKNS_11_InputArrayERKNS_12_OutputArrayEi = private unnamed_addr constant [14 x i8] c"applyColorMap\00", align 1
@.str.12 = private unnamed_addr constant [49 x i8] c"cv::LUT only supports tables CV_8UC1 or CV_8UC3.\00", align 1
@_ZTVN2cv8colormap8ColorMapE = linkonce_odr hidden unnamed_addr constant { [4 x ptr] } { [4 x ptr] [ptr null, ptr @_ZTIN2cv8colormap8ColorMapE, ptr @_ZN2cv8colormap8ColorMapD2Ev, ptr @_ZN2cv8colormap8ColorMapD0Ev] }, comdat, align 8
@_ZTVN2cv8colormap12UserColorMapE = linkonce_odr hidden unnamed_addr constant { [4 x ptr] } { [4 x ptr] [ptr null, ptr @_ZTIN2cv8colormap12UserColorMapE, ptr @_ZN2cv8colormap12UserColorMapD2Ev, ptr @_ZN2cv8colormap12UserColorMapD0Ev] }, comdat, align 8

; Function Attrs: mustprogress nounwind uwtable
define linkonce_odr hidden void @_ZN2cv8colormap8ColorMapD2Ev(ptr noundef nonnull align 8 dereferenceable(104) %0) unnamed_addr #6 comdat align 2 {
  %2 = alloca ptr, align 8
  store ptr %0, ptr %2, align 8
  %3 = load ptr, ptr %2, align 8
  store ptr getelementptr inbounds inrange(-16, 16) ({ [4 x ptr] }, ptr @_ZTVN2cv8colormap8ColorMapE, i32 0, i32 0, i32 2), ptr %3, align 8
  %4 = getelementptr inbounds %"class.cv::colormap::ColorMap", ptr %3, i32 0, i32 1
  call void @_ZN2cv3MatD1Ev(ptr noundef nonnull align 8 dereferenceable(96) %4) #3
  ret void
}

; Function Attrs: mustprogress uwtable
define linkonce_odr hidden void @_ZN2cv8colormap12UserColorMap4initENS_3MatE(ptr noundef nonnull align 8 dereferenceable(104) %0, ptr noundef %1) #4 comdat align 2 {
  %3 = alloca ptr, align 8
  %4 = alloca ptr, align 8
  store ptr %0, ptr %3, align 8
  store ptr %1, ptr %4, align 8
  %5 = load ptr, ptr %3, align 8
  %6 = getelementptr inbounds %"class.cv::colormap::ColorMap", ptr %5, i32 0, i32 1
  %7 = call noundef nonnull align 8 dereferenceable(96) ptr @_ZN2cv3MataSERKS0_(ptr noundef nonnull align 8 dereferenceable(96) %6, ptr noundef nonnull align 8 dereferenceable(96) %1)
  ret void
}

; Function Attrs: mustprogress nounwind uwtable
define linkonce_odr hidden void @_ZN2cv8colormap8ColorMapC2Ev(ptr noundef nonnull align 8 dereferenceable(104) %0) unnamed_addr #6 comdat align 2 {
  %2 = alloca ptr, align 8
  store ptr %0, ptr %2, align 8
  %3 = load ptr, ptr %2, align 8
  store ptr getelementptr inbounds inrange(-16, 16) ({ [4 x ptr] }, ptr @_ZTVN2cv8colormap8ColorMapE, i32 0, i32 0, i32 2), ptr %3, align 8
  %4 = getelementptr inbounds %"class.cv::colormap::ColorMap", ptr %3, i32 0, i32 1
  call void @_ZN2cv3MatC1Ev(ptr noundef nonnull align 8 dereferenceable(96) %4) #3
  ret void
}

; Function Attrs: mustprogress nounwind uwtable
define internal noundef zeroext i1 @_ZN2cveqIiEEbRKNS_5Size_IT_EES5_(ptr noundef nonnull align 4 dereferenceable(8) %0, ptr noundef nonnull align 4 dereferenceable(8) %1) #6 {
  %3 = alloca ptr, align 8
  %4 = alloca ptr, align 8
  store ptr %0, ptr %3, align 8
  store ptr %1, ptr %4, align 8
  %5 = load ptr, ptr %3, align 8
  %6 = getelementptr inbounds %"class.cv::Size_", ptr %5, i32 0, i32 0
  %7 = load i32, ptr %6, align 4
  %8 = load ptr, ptr %4, align 8
  %9 = getelementptr inbounds %"class.cv::Size_", ptr %8, i32 0, i32 0
  %10 = load i32, ptr %9, align 4
  %11 = icmp eq i32 %7, %10
  br i1 %11, label %12, label %20

12:                                               ; preds = %2
  %13 = load ptr, ptr %3, align 8
  %14 = getelementptr inbounds %"class.cv::Size_", ptr %13, i32 0, i32 1
  %15 = load i32, ptr %14, align 4
  %16 = load ptr, ptr %4, align 8
  %17 = getelementptr inbounds %"class.cv::Size_", ptr %16, i32 0, i32 1
  %18 = load i32, ptr %17, align 4
  %19 = icmp eq i32 %15, %18
  br label %20

20:                                               ; preds = %12, %2
  %21 = phi i1 [ false, %2 ], [ %19, %12 ]
  ret i1 %21
}

; Function Attrs: mustprogress nounwind uwtable
define linkonce_odr hidden void @_ZN2cv8colormap12UserColorMapD2Ev(ptr noundef nonnull align 8 dereferenceable(104) %0) unnamed_addr #6 comdat align 2 {
  %2 = alloca ptr, align 8
  store ptr %0, ptr %2, align 8
  %3 = load ptr, ptr %2, align 8
  call void @_ZN2cv8colormap8ColorMapD2Ev(ptr noundef nonnull align 8 dereferenceable(104) %3) #3
  ret void
}

; Function Attrs: mustprogress uwtable
define linkonce_odr hidden void @_ZN2cv8colormap12UserColorMapC2ENS_3MatE(ptr noundef nonnull align 8 dereferenceable(104) %0, ptr noundef %1) unnamed_addr #4 comdat align 2 personality ptr @__gxx_personality_v0 {
  %3 = alloca ptr, align 8
  %4 = alloca ptr, align 8
  %5 = alloca %"class.cv::Mat", align 8
  %6 = alloca ptr, align 8
  %7 = alloca i32, align 4
  store ptr %0, ptr %3, align 8
  store ptr %1, ptr %4, align 8
  %8 = load ptr, ptr %3, align 8
  %9 = getelementptr inbounds i8, ptr %8, i64 0
  call void @llvm.memset.p0.i64(ptr align 8 %9, i8 0, i64 104, i1 false)
  call void @_ZN2cv8colormap8ColorMapC2Ev(ptr noundef nonnull align 8 dereferenceable(104) %8) #3
  store ptr getelementptr inbounds inrange(-16, 16) ({ [4 x ptr] }, ptr @_ZTVN2cv8colormap12UserColorMapE, i32 0, i32 0, i32 2), ptr %8, align 8
  invoke void @_ZN2cv3MatC1ERKS0_(ptr noundef nonnull align 8 dereferenceable(96) %5, ptr noundef nonnull align 8 dereferenceable(96) %1)
          to label %10 unwind label %12

10:                                               ; preds = %2
  invoke void @_ZN2cv8colormap12UserColorMap4initENS_3MatE(ptr noundef nonnull align 8 dereferenceable(104) %8, ptr noundef %5)
          to label %11 unwind label %16

11:                                               ; preds = %10
  call void @_ZN2cv3MatD1Ev(ptr noundef nonnull align 8 dereferenceable(96) %5) #3
  ret void

12:                                               ; preds = %2
  %13 = landingpad { ptr, i32 }
          cleanup
  %14 = extractvalue { ptr, i32 } %13, 0
  store ptr %14, ptr %6, align 8
  %15 = extractvalue { ptr, i32 } %13, 1
  store i32 %15, ptr %7, align 4
  br label %20

16:                                               ; preds = %10
  %17 = landingpad { ptr, i32 }
          cleanup
  %18 = extractvalue { ptr, i32 } %17, 0
  store ptr %18, ptr %6, align 8
  %19 = extractvalue { ptr, i32 } %17, 1
  store i32 %19, ptr %7, align 4
  call void @_ZN2cv3MatD1Ev(ptr noundef nonnull align 8 dereferenceable(96) %5) #3
  br label %20

20:                                               ; preds = %16, %12
  call void @_ZN2cv8colormap8ColorMapD2Ev(ptr noundef nonnull align 8 dereferenceable(104) %8) #3
  br label %21

21:                                               ; preds = %20
  %22 = load ptr, ptr %6, align 8
  %23 = load i32, ptr %7, align 4
  %24 = insertvalue { ptr, i32 } poison, ptr %22, 0
  %25 = insertvalue { ptr, i32 } %24, i32 %23, 1
  resume { ptr, i32 } %25
}

; Function Attrs: mustprogress uwtable
define linkonce_odr hidden void @_ZNK2cv11_InputArray6getMatEi(ptr dead_on_unwind noalias writable sret(%"class.cv::Mat") align 8 %0, ptr noundef nonnull align 8 dereferenceable(24) %1, i32 noundef %2) #4 comdat align 2 {
  %4 = alloca ptr, align 8
  %5 = alloca ptr, align 8
  %6 = alloca i32, align 4
  store ptr %0, ptr %4, align 8
  store ptr %1, ptr %5, align 8
  store i32 %2, ptr %6, align 4
  %7 = load ptr, ptr %5, align 8
  %8 = call noundef i32 @_ZNK2cv11_InputArray4kindEv(ptr noundef nonnull align 8 dereferenceable(24) %7)
  %9 = icmp eq i32 %8, 65536
  br i1 %9, label %10, label %16

10:                                               ; preds = %3
  %11 = load i32, ptr %6, align 4
  %12 = icmp slt i32 %11, 0
  br i1 %12, label %13, label %16

13:                                               ; preds = %10
  %14 = getelementptr inbounds %"class.cv::_InputArray", ptr %7, i32 0, i32 1
  %15 = load ptr, ptr %14, align 8
  call void @_ZN2cv3MatC1ERKS0_(ptr noundef nonnull align 8 dereferenceable(96) %0, ptr noundef nonnull align 8 dereferenceable(96) %15)
  br label %18

16:                                               ; preds = %10, %3
  %17 = load i32, ptr %6, align 4
  call void @_ZNK2cv11_InputArray7getMat_Ei(ptr dead_on_unwind writable sret(%"class.cv::Mat") align 8 %0, ptr noundef nonnull align 8 dereferenceable(24) %7, i32 noundef %17)
  br label %18

18:                                               ; preds = %16, %13
  ret void
}

; Function Attrs: mustprogress uwtable
define internal noundef zeroext i1 @_ZN2cvneIiEEbRKNS_5Size_IT_EES5_(ptr noundef nonnull align 4 dereferenceable(8) %0, ptr noundef nonnull align 4 dereferenceable(8) %1) #4 {
  %3 = alloca ptr, align 8
  %4 = alloca ptr, align 8
  store ptr %0, ptr %3, align 8
  store ptr %1, ptr %4, align 8
  %5 = load ptr, ptr %3, align 8
  %6 = load ptr, ptr %4, align 8
  %7 = call noundef zeroext i1 @_ZN2cveqIiEEbRKNS_5Size_IT_EES5_(ptr noundef nonnull align 4 dereferenceable(8) %5, ptr noundef nonnull align 4 dereferenceable(8) %6)
  %8 = xor i1 %7, true
  ret i1 %8
}

; Function Attrs: mustprogress nounwind uwtable
define linkonce_odr hidden void @_ZN2cv5Size_IiEC2Eii(ptr noundef nonnull align 4 dereferenceable(8) %0, i32 noundef %1, i32 noundef %2) unnamed_addr #6 comdat align 2 {
  %4 = alloca ptr, align 8
  %5 = alloca i32, align 4
  %6 = alloca i32, align 4
  store ptr %0, ptr %4, align 8
  store i32 %1, ptr %5, align 4
  store i32 %2, ptr %6, align 4
  %7 = load ptr, ptr %4, align 8
  %8 = getelementptr inbounds %"class.cv::Size_", ptr %7, i32 0, i32 0
  %9 = load i32, ptr %5, align 4
  store i32 %9, ptr %8, align 4
  %10 = getelementptr inbounds %"class.cv::Size_", ptr %7, i32 0, i32 1
  %11 = load i32, ptr %6, align 4
  store i32 %11, ptr %10, align 4
  ret void
}

; Function Attrs: mustprogress uwtable
define void @_ZN2cv13applyColorMapERKNS_11_InputArrayERKNS_12_OutputArrayES2_(ptr noundef nonnull align 8 dereferenceable(24) %0, ptr noundef nonnull align 8 dereferenceable(24) %1, ptr noundef nonnull align 8 dereferenceable(24) %2) #4 personality ptr @__gxx_personality_v0 {
  %4 = alloca ptr, align 8
  %5 = alloca ptr, align 8
  %6 = alloca ptr, align 8
  %7 = alloca %"class.cv::Size_", align 4
  %8 = alloca %"class.cv::Size_", align 4
  %9 = alloca %"class.std::__cxx11::basic_string", align 8
  %10 = alloca %"class.std::allocator", align 1
  %11 = alloca ptr, align 8
  %12 = alloca i32, align 4
  %13 = alloca %"class.std::__cxx11::basic_string", align 8
  %14 = alloca %"class.std::allocator", align 1
  %15 = alloca %"class.cv::colormap::UserColorMap", align 8
  %16 = alloca %"class.cv::Mat", align 8
  store ptr %0, ptr %4, align 8
  store ptr %1, ptr %5, align 8
  store ptr %2, ptr %6, align 8
  %17 = load ptr, ptr %6, align 8
  %18 = call i64 @_ZNK2cv11_InputArray4sizeEi(ptr noundef nonnull align 8 dereferenceable(24) %17, i32 noundef -1)
  store i64 %18, ptr %7, align 4
  call void @_ZN2cv5Size_IiEC2Eii(ptr noundef nonnull align 4 dereferenceable(8) %8, i32 noundef 1, i32 noundef 256)
  %19 = call noundef zeroext i1 @_ZN2cvneIiEEbRKNS_5Size_IT_EES5_(ptr noundef nonnull align 4 dereferenceable(8) %7, ptr noundef nonnull align 4 dereferenceable(8) %8)
  br i1 %19, label %20, label %32

20:                                               ; preds = %3
  call void @_ZNSaIcEC1Ev(ptr noundef nonnull align 1 dereferenceable(1) %10) #3
  invoke void @_ZNSt7__cxx1112basic_stringIcSt11char_traitsIcESaIcEEC1EPKcRKS3_(ptr noundef nonnull align 8 dereferenceable(32) %9, ptr noundef @.str.2, ptr noundef nonnull align 1 dereferenceable(1) %10)
          to label %21 unwind label %23

21:                                               ; preds = %20
  invoke void @_ZN2cv5errorEiRKNSt7__cxx1112basic_stringIcSt11char_traitsIcESaIcEEEPKcS9_i(i32 noundef -215, ptr noundef nonnull align 8 dereferenceable(32) %9, ptr noundef @__func__._ZN2cv13applyColorMapERKNS_11_InputArrayERKNS_12_OutputArrayEi, ptr noundef @.str.1, i32 noundef 842) #13
          to label %22 unwind label %27

22:                                               ; preds = %21
  unreachable

23:                                               ; preds = %20
  %24 = landingpad { ptr, i32 }
          cleanup
  %25 = extractvalue { ptr, i32 } %24, 0
  store ptr %25, ptr %11, align 8
  %26 = extractvalue { ptr, i32 } %24, 1
  store i32 %26, ptr %12, align 4
  br label %31

27:                                               ; preds = %21
  %28 = landingpad { ptr, i32 }
          cleanup
  %29 = extractvalue { ptr, i32 } %28, 0
  store ptr %29, ptr %11, align 8
  %30 = extractvalue { ptr, i32 } %28, 1
  store i32 %30, ptr %12, align 4
  call void @_ZNSt7__cxx1112basic_stringIcSt11char_traitsIcESaIcEED1Ev(ptr noundef nonnull align 8 dereferenceable(32) %9) #3
  br label %31

31:                                               ; preds = %27, %23
  call void @_ZNSaIcED1Ev(ptr noundef nonnull align 1 dereferenceable(1) %10) #3
  br label %66

32:                                               ; preds = %3
  %33 = load ptr, ptr %6, align 8
  %34 = call noundef i32 @_ZNK2cv11_InputArray4typeEi(ptr noundef nonnull align 8 dereferenceable(24) %33, i32 noundef -1)
  %35 = icmp ne i32 %34, 0
  br i1 %35, label %36, label %52

36:                                               ; preds = %32
  %37 = load ptr, ptr %6, align 8
  %38 = call noundef i32 @_ZNK2cv11_InputArray4typeEi(ptr noundef nonnull align 8 dereferenceable(24) %37, i32 noundef -1)
  %39 = icmp ne i32 %38, 16
  br i1 %39, label %40, label %52

40:                                               ; preds = %36
  call void @_ZNSaIcEC1Ev(ptr noundef nonnull align 1 dereferenceable(1) %14) #3
  invoke void @_ZNSt7__cxx1112basic_stringIcSt11char_traitsIcESaIcEEC1EPKcRKS3_(ptr noundef nonnull align 8 dereferenceable(32) %13, ptr noundef @.str.12, ptr noundef nonnull align 1 dereferenceable(1) %14)
          to label %41 unwind label %43

41:                                               ; preds = %40
  invoke void @_ZN2cv5errorEiRKNSt7__cxx1112basic_stringIcSt11char_traitsIcESaIcEEEPKcS9_i(i32 noundef -215, ptr noundef nonnull align 8 dereferenceable(32) %13, ptr noundef @__func__._ZN2cv13applyColorMapERKNS_11_InputArrayERKNS_12_OutputArrayEi, ptr noundef @.str.1, i32 noundef 844) #13
          to label %42 unwind label %47

42:                                               ; preds = %41
  unreachable

43:                                               ; preds = %40
  %44 = landingpad { ptr, i32 }
          cleanup
  %45 = extractvalue { ptr, i32 } %44, 0
  store ptr %45, ptr %11, align 8
  %46 = extractvalue { ptr, i32 } %44, 1
  store i32 %46, ptr %12, align 4
  br label %51

47:                                               ; preds = %41
  %48 = landingpad { ptr, i32 }
          cleanup
  %49 = extractvalue { ptr, i32 } %48, 0
  store ptr %49, ptr %11, align 8
  %50 = extractvalue { ptr, i32 } %48, 1
  store i32 %50, ptr %12, align 4
  call void @_ZNSt7__cxx1112basic_stringIcSt11char_traitsIcESaIcEED1Ev(ptr noundef nonnull align 8 dereferenceable(32) %13) #3
  br label %51

51:                                               ; preds = %47, %43
  call void @_ZNSaIcED1Ev(ptr noundef nonnull align 1 dereferenceable(1) %14) #3
  br label %66

52:                                               ; preds = %36, %32
  %53 = load ptr, ptr %6, align 8
  call void @_ZNK2cv11_InputArray6getMatEi(ptr dead_on_unwind writable sret(%"class.cv::Mat") align 8 %16, ptr noundef nonnull align 8 dereferenceable(24) %53, i32 noundef -1)
  invoke void @_ZN2cv8colormap12UserColorMapC2ENS_3MatE(ptr noundef nonnull align 8 dereferenceable(104) %15, ptr noundef %16)
          to label %54 unwind label %58

54:                                               ; preds = %52
  call void @_ZN2cv3MatD1Ev(ptr noundef nonnull align 8 dereferenceable(96) %16) #3
  %55 = load ptr, ptr %4, align 8
  %56 = load ptr, ptr %5, align 8
  invoke void @_ZNK2cv8colormap8ColorMapclERKNS_11_InputArrayERKNS_12_OutputArrayE(ptr noundef nonnull align 8 dereferenceable(104) %15, ptr noundef nonnull align 8 dereferenceable(24) %55, ptr noundef nonnull align 8 dereferenceable(24) %56)
          to label %57 unwind label %62

57:                                               ; preds = %54
  call void @_ZN2cv8colormap12UserColorMapD2Ev(ptr noundef nonnull align 8 dereferenceable(104) %15) #3
  ret void

58:                                               ; preds = %52
  %59 = landingpad { ptr, i32 }
          cleanup
  %60 = extractvalue { ptr, i32 } %59, 0
  store ptr %60, ptr %11, align 8
  %61 = extractvalue { ptr, i32 } %59, 1
  store i32 %61, ptr %12, align 4
  call void @_ZN2cv3MatD1Ev(ptr noundef nonnull align 8 dereferenceable(96) %16) #3
  br label %66

62:                                               ; preds = %54
  %63 = landingpad { ptr, i32 }
          cleanup
  %64 = extractvalue { ptr, i32 } %63, 0
  store ptr %64, ptr %11, align 8
  %65 = extractvalue { ptr, i32 } %63, 1
  store i32 %65, ptr %12, align 4
  call void @_ZN2cv8colormap12UserColorMapD2Ev(ptr noundef nonnull align 8 dereferenceable(104) %15) #3
  br label %66

66:                                               ; preds = %62, %58, %51, %31
  %67 = load ptr, ptr %11, align 8
  %68 = load i32, ptr %12, align 4
  %69 = insertvalue { ptr, i32 } poison, ptr %67, 0
  %70 = insertvalue { ptr, i32 } %69, i32 %68, 1
  resume { ptr, i32 } %70
}