; Function Attrs: mustprogress uwtable
define void @_ZN2cv13applyColorMapERKNS_11_InputArrayERKNS_12_OutputArrayES2_(ptr noundef nonnull align 8 dereferenceable(24) %0, ptr noundef nonnull align 8 dereferenceable(24) %1, ptr noundef nonnull align 8 dereferenceable(24) %2) local_unnamed_addr #3 personality ptr @__gxx_personality_v0 {
  %4 = alloca %"class.cv::Mat", align 8
  %5 = alloca %"class.std::__cxx11::basic_string", align 8
  %6 = alloca %"class.std::allocator", align 1
  %7 = alloca %"class.std::__cxx11::basic_string", align 8
  %8 = alloca %"class.std::allocator", align 1
  %9 = alloca %"class.cv::colormap::UserColorMap", align 8
  %10 = alloca %"class.cv::Mat", align 8
  %11 = tail call i64 @_ZNK2cv11_InputArray4sizeEi(ptr noundef nonnull align 8 dereferenceable(24) %2, i32 noundef -1)
  %.not6.i.not = icmp eq i64 %11, 1099511627777
  br i1 %.not6.i.not, label %20, label %12

12:                                               ; preds = %3
  call void @_ZNSaIcEC1Ev(ptr noundef nonnull align 1 dereferenceable(1) %6) #17
  invoke void @_ZNSt7__cxx1112basic_stringIcSt11char_traitsIcESaIcEEC1EPKcRKS3_(ptr noundef nonnull align 8 dereferenceable(32) %5, ptr noundef nonnull @.str.2, ptr noundef nonnull align 1 dereferenceable(1) %6)
          to label %13 unwind label %15

13:                                               ; preds = %12
  invoke void @_ZN2cv5errorEiRKNSt7__cxx1112basic_stringIcSt11char_traitsIcESaIcEEEPKcS9_i(i32 noundef -215, ptr noundef nonnull align 8 dereferenceable(32) %5, ptr noundef nonnull @__func__._ZN2cv13applyColorMapERKNS_11_InputArrayERKNS_12_OutputArrayEi, ptr noundef nonnull @.str.1, i32 noundef 842) #18
          to label %14 unwind label %17

14:                                               ; preds = %13
  unreachable

15:                                               ; preds = %12
  %16 = landingpad { ptr, i32 }
          cleanup
  br label %19

17:                                               ; preds = %13
  %18 = landingpad { ptr, i32 }
          cleanup
  call void @_ZNSt7__cxx1112basic_stringIcSt11char_traitsIcESaIcEED1Ev(ptr noundef nonnull align 8 dereferenceable(32) %5) #17
  br label %19

19:                                               ; preds = %17, %15
  %.pn12 = phi { ptr, i32 } [ %18, %17 ], [ %16, %15 ]
  call void @_ZNSaIcED1Ev(ptr noundef nonnull align 1 dereferenceable(1) %6) #17
  br label %50

20:                                               ; preds = %3
  %21 = tail call noundef i32 @_ZNK2cv11_InputArray4typeEi(ptr noundef nonnull align 8 dereferenceable(24) %2, i32 noundef -1)
  %.not = icmp eq i32 %21, 0
  br i1 %.not, label %32, label %22

22:                                               ; preds = %20
  %23 = tail call noundef i32 @_ZNK2cv11_InputArray4typeEi(ptr noundef nonnull align 8 dereferenceable(24) %2, i32 noundef -1)
  %.not10 = icmp eq i32 %23, 16
  br i1 %.not10, label %32, label %24

24:                                               ; preds = %22
  call void @_ZNSaIcEC1Ev(ptr noundef nonnull align 1 dereferenceable(1) %8) #17
  invoke void @_ZNSt7__cxx1112basic_stringIcSt11char_traitsIcESaIcEEC1EPKcRKS3_(ptr noundef nonnull align 8 dereferenceable(32) %7, ptr noundef nonnull @.str.12, ptr noundef nonnull align 1 dereferenceable(1) %8)
          to label %25 unwind label %27

25:                                               ; preds = %24
  invoke void @_ZN2cv5errorEiRKNSt7__cxx1112basic_stringIcSt11char_traitsIcESaIcEEEPKcS9_i(i32 noundef -215, ptr noundef nonnull align 8 dereferenceable(32) %7, ptr noundef nonnull @__func__._ZN2cv13applyColorMapERKNS_11_InputArrayERKNS_12_OutputArrayEi, ptr noundef nonnull @.str.1, i32 noundef 844) #18
          to label %26 unwind label %29

26:                                               ; preds = %25
  unreachable

27:                                               ; preds = %24
  %28 = landingpad { ptr, i32 }
          cleanup
  br label %31

29:                                               ; preds = %25
  %30 = landingpad { ptr, i32 }
          cleanup
  call void @_ZNSt7__cxx1112basic_stringIcSt11char_traitsIcESaIcEED1Ev(ptr noundef nonnull align 8 dereferenceable(32) %7) #17
  br label %31

31:                                               ; preds = %29, %27
  %.pn = phi { ptr, i32 } [ %30, %29 ], [ %28, %27 ]
  call void @_ZNSaIcED1Ev(ptr noundef nonnull align 1 dereferenceable(1) %8) #17
  br label %50

32:                                               ; preds = %22, %20
  %33 = tail call noundef i32 @_ZNK2cv11_InputArray4kindEv(ptr noundef nonnull align 8 dereferenceable(24) %2), !noalias !104
  %34 = icmp eq i32 %33, 65536
  br i1 %34, label %35, label %38

35:                                               ; preds = %32
  %36 = getelementptr inbounds i8, ptr %2, i64 8
  %37 = load ptr, ptr %36, align 8, !noalias !104
  call void @_ZN2cv3MatC1ERKS0_(ptr noundef nonnull align 8 dereferenceable(96) %10, ptr noundef nonnull align 8 dereferenceable(96) %37)
  br label %_ZNK2cv11_InputArray6getMatEi.exit

38:                                               ; preds = %32
  call void @_ZNK2cv11_InputArray7getMat_Ei(ptr dead_on_unwind nonnull writable sret(%"class.cv::Mat") align 8 %10, ptr noundef nonnull align 8 dereferenceable(24) %2, i32 noundef -1)
  br label %_ZNK2cv11_InputArray6getMatEi.exit

_ZNK2cv11_InputArray6getMatEi.exit:               ; preds = %35, %38
  call void @llvm.lifetime.start.p0(i64 96, ptr nonnull %4)
  %39 = getelementptr inbounds i8, ptr %9, i64 8
  call void @llvm.memset.p0.i64(ptr noundef nonnull align 8 dereferenceable(104) %39, i8 0, i64 96, i1 false)
  store ptr getelementptr inbounds inrange(-16, 16) (i8, ptr @_ZTVN2cv8colormap8ColorMapE, i64 16), ptr %9, align 8
  call void @_ZN2cv3MatC1Ev(ptr noundef nonnull align 8 dereferenceable(96) %39) #17
  store ptr getelementptr inbounds inrange(-16, 16) (i8, ptr @_ZTVN2cv8colormap12UserColorMapE, i64 16), ptr %9, align 8
  invoke void @_ZN2cv3MatC1ERKS0_(ptr noundef nonnull align 8 dereferenceable(96) %4, ptr noundef nonnull align 8 dereferenceable(96) %10)
          to label %40 unwind label %42

40:                                               ; preds = %_ZNK2cv11_InputArray6getMatEi.exit
  %41 = invoke noundef nonnull align 8 dereferenceable(96) ptr @_ZN2cv3MataSERKS0_(ptr noundef nonnull align 8 dereferenceable(96) %39, ptr noundef nonnull align 8 dereferenceable(96) %4)
          to label %46 unwind label %44

42:                                               ; preds = %_ZNK2cv11_InputArray6getMatEi.exit
  %43 = landingpad { ptr, i32 }
          cleanup
  br label %.body

44:                                               ; preds = %40
  %45 = landingpad { ptr, i32 }
          cleanup
  call void @_ZN2cv3MatD1Ev(ptr noundef nonnull align 8 dereferenceable(96) %4) #17
  br label %.body

.body:                                            ; preds = %44, %42
  %.pn.i = phi { ptr, i32 } [ %45, %44 ], [ %43, %42 ]
  store ptr getelementptr inbounds inrange(-16, 16) (i8, ptr @_ZTVN2cv8colormap8ColorMapE, i64 16), ptr %9, align 8
  call void @_ZN2cv3MatD1Ev(ptr noundef nonnull align 8 dereferenceable(96) %39) #17
  call void @_ZN2cv3MatD1Ev(ptr noundef nonnull align 8 dereferenceable(96) %10) #17
  br label %50

46:                                               ; preds = %40
  call void @_ZN2cv3MatD1Ev(ptr noundef nonnull align 8 dereferenceable(96) %4) #17
  call void @llvm.lifetime.end.p0(i64 96, ptr nonnull %4)
  call void @_ZN2cv3MatD1Ev(ptr noundef nonnull align 8 dereferenceable(96) %10) #17
  invoke void @_ZNK2cv8colormap8ColorMapclERKNS_11_InputArrayERKNS_12_OutputArrayE(ptr noundef nonnull align 8 dereferenceable(104) %9, ptr noundef nonnull align 8 dereferenceable(24) %0, ptr noundef nonnull align 8 dereferenceable(24) %1)
          to label %47 unwind label %48

47:                                               ; preds = %46
  store ptr getelementptr inbounds inrange(-16, 16) (i8, ptr @_ZTVN2cv8colormap8ColorMapE, i64 16), ptr %9, align 8
  call void @_ZN2cv3MatD1Ev(ptr noundef nonnull align 8 dereferenceable(96) %39) #17
  ret void

48:                                               ; preds = %46
  %49 = landingpad { ptr, i32 }
          cleanup
  store ptr getelementptr inbounds inrange(-16, 16) (i8, ptr @_ZTVN2cv8colormap8ColorMapE, i64 16), ptr %9, align 8
  call void @_ZN2cv3MatD1Ev(ptr noundef nonnull align 8 dereferenceable(96) %39) #17
  br label %50

50:                                               ; preds = %48, %.body, %31, %19
  %.pn12.pn = phi { ptr, i32 } [ %.pn12, %19 ], [ %.pn, %31 ], [ %49, %48 ], [ %.pn.i, %.body ]
  resume { ptr, i32 } %.pn12.pn
}